; Function Attrs: mustprogress uwtable
define hidden void @_ZN2cv11xfeatures2d28LATCHDescriptorExtractorImplC1Eibid(ptr noundef nonnull align 8 dereferenceable(64) %0, i32 noundef %1, i1 noundef zeroext %2, i32 noundef %3, double noundef %4) unnamed_addr #3 align 2 personality ptr @__gxx_personality_v0 {
  tail call void @_ZN2cv9AlgorithmC2Ev(ptr noundef nonnull align 8 dereferenceable(8) %0)
  %6 = zext i1 %2 to i8
  store ptr getelementptr inbounds inrange(-80, 192) (i8, ptr @_ZTVN2cv11xfeatures2d28LATCHDescriptorExtractorImplE, i64 80), ptr %0, align 8
  %7 = getelementptr inbounds i8, ptr %0, i64 8
  store i32 %1, ptr %7, align 8
  %8 = getelementptr inbounds i8, ptr %0, i64 16
  store ptr null, ptr %8, align 8
  %9 = getelementptr inbounds i8, ptr %0, i64 24
  store i8 %6, ptr %9, align 8
  %10 = getelementptr inbounds i8, ptr %0, i64 28
  store i32 %3, ptr %10, align 4
  %11 = getelementptr inbounds i8, ptr %0, i64 32
  store double %4, ptr %11, align 8
  %12 = getelementptr inbounds i8, ptr %0, i64 40
  tail call void @llvm.memset.p0.i64(ptr noundef nonnull align 8 dereferenceable(24) %12, i8 0, i64 24, i1 false)
  invoke void @_ZN2cv11xfeatures2d28LATCHDescriptorExtractorImpl8setBytesEi(ptr noundef nonnull align 8 dereferenceable(64) %0, i32 noundef %1)
          to label %13 unwind label %14

13:                                               ; preds = %5
  ret void

14:                                               ; preds = %5
  %15 = landingpad { ptr, i32 }
          cleanup
  %16 = load ptr, ptr %12, align 8
  %.not.i.i.i = icmp eq ptr %16, null
  br i1 %.not.i.i.i, label %_ZNSt6vectorIiSaIiEED2Ev.exit, label %17

17:                                               ; preds = %14
  tail call void @_ZdlPv(ptr noundef nonnull %16) #23
  br label %_ZNSt6vectorIiSaIiEED2Ev.exit

_ZNSt6vectorIiSaIiEED2Ev.exit:                    ; preds = %14, %17
  tail call void @_ZN2cv9Feature2DD2Ev(ptr noundef nonnull align 8 dereferenceable(8) %0, ptr noundef nonnull getelementptr inbounds (i8, ptr @_ZTTN2cv11xfeatures2d28LATCHDescriptorExtractorImplE, i64 16)) #20
  tail call void @_ZN2cv9AlgorithmD2Ev(ptr noundef nonnull align 8 dereferenceable(8) %0) #20
  resume { ptr, i32 } %15
}